target datalayout = "e-m:e-p270:32:32-p271:32:32-p272:64:64-i64:64-i128:128-f80:128-n8:16:32:64-S128"
target triple = "x86_64-pc-linux-gnu"

@do_fips = internal global i32 0, align 4
@config_file = internal global ptr null, align 8
@.str.18 = private unnamed_addr constant [30 x i8] c"../openssl/test/threadstest.c\00", align 1
@.str.19 = private unnamed_addr constant [31 x i8] c"datadir = test_get_argument(0)\00", align 1
@.str.20 = private unnamed_addr constant [11 x i8] c"rsakey.pem\00", align 1
@privkey = internal global ptr null, align 8
@.str.21 = private unnamed_addr constant [8 x i8] c"privkey\00", align 1
@.str.22 = private unnamed_addr constant [39 x i8] c"global_lock = CRYPTO_THREAD_lock_new()\00", align 1
@global_lock = internal global ptr null, align 8
@.str.23 = private unnamed_addr constant [19 x i8] c"test_multi_default\00", align 1
@.str.24 = private unnamed_addr constant [10 x i8] c"test_lock\00", align 1
@.str.25 = private unnamed_addr constant [15 x i8] c"torture_rw_low\00", align 1
@.str.26 = private unnamed_addr constant [16 x i8] c"torture_rw_high\00", align 1
@.str.27 = private unnamed_addr constant [16 x i8] c"torture_rcu_low\00", align 1
@.str.28 = private unnamed_addr constant [17 x i8] c"torture_rcu_high\00", align 1
@.str.29 = private unnamed_addr constant [10 x i8] c"test_once\00", align 1
@.str.30 = private unnamed_addr constant [18 x i8] c"test_thread_local\00", align 1
@.str.31 = private unnamed_addr constant [12 x i8] c"test_atomic\00", align 1
@.str.32 = private unnamed_addr constant [16 x i8] c"test_multi_load\00", align 1
@.str.33 = private unnamed_addr constant [43 x i8] c"test_multi_general_worker_default_provider\00", align 1
@.str.34 = private unnamed_addr constant [40 x i8] c"test_multi_general_worker_fips_provider\00", align 1
@.str.35 = private unnamed_addr constant [24 x i8] c"test_multi_fetch_worker\00", align 1
@.str.36 = private unnamed_addr constant [23 x i8] c"test_multi_shared_pkey\00", align 1
@.str.37 = private unnamed_addr constant [33 x i8] c"test_multi_downgrade_shared_pkey\00", align 1
@.str.38 = private unnamed_addr constant [31 x i8] c"test_multi_shared_pkey_release\00", align 1
@.str.39 = private unnamed_addr constant [32 x i8] c"test_multi_load_unload_provider\00", align 1
@.str.40 = private unnamed_addr constant [13 x i8] c"test_obj_add\00", align 1
@.str.41 = private unnamed_addr constant [20 x i8] c"test_bio_dgram_pair\00", align 1
@.str.42 = private unnamed_addr constant [14 x i8] c"test_pem_read\00", align 1

; Function Attrs: nounwind uwtable
define dso_local i32 @setup_tests() #0 {
  %1 = alloca i32, align 4
  %2 = alloca i32, align 4
  %3 = alloca ptr, align 8
  %4 = alloca i32, align 4
  call void @llvm.lifetime.start.p0(i64 4, ptr %2) #10
  call void @llvm.lifetime.start.p0(i64 8, ptr %3) #10
  br label %5

5:                                                ; preds = %15, %0
  %6 = call i32 @opt_next()
  store i32 %6, ptr %2, align 4, !tbaa !4
  %7 = icmp ne i32 %6, 0
  br i1 %7, label %8, label %16

8:                                                ; preds = %5
  %9 = load i32, ptr %2, align 4, !tbaa !4
  switch i32 %9, label %14 [
    i32 1, label %10
    i32 2, label %11
    i32 500, label %13
    i32 501, label %13
    i32 502, label %13
    i32 503, label %13
    i32 504, label %13
    i32 505, label %13
  ]

10:                                               ; preds = %8
  store i32 1, ptr @do_fips, align 4, !tbaa !4
  br label %15

11:                                               ; preds = %8
  %12 = call ptr @opt_arg()
  store ptr %12, ptr @config_file, align 8, !tbaa !8
  br label %15

13:                                               ; preds = %8, %8, %8, %8, %8, %8
  br label %15

14:                                               ; preds = %8
  store i32 0, ptr %1, align 4
  store i32 1, ptr %4, align 4
  br label %34

15:                                               ; preds = %13, %11, %10
  br label %5, !llvm.loop !11

16:                                               ; preds = %5
  %17 = call ptr @test_get_argument(i64 noundef 0)
  store ptr %17, ptr %3, align 8, !tbaa !8
  %18 = call i32 @test_ptr(ptr noundef @.str.18, i32 noundef 1310, ptr noundef @.str.19, ptr noundef %17)
  %19 = icmp ne i32 %18, 0
  br i1 %19, label %21, label %20

20:                                               ; preds = %16
  store i32 0, ptr %1, align 4
  store i32 1, ptr %4, align 4
  br label %34

21:                                               ; preds = %16
  %22 = load ptr, ptr %3, align 8, !tbaa !8
  %23 = call ptr @test_mk_file_path(ptr noundef %22, ptr noundef @.str.20)
  store ptr %23, ptr @privkey, align 8, !tbaa !8
  %24 = load ptr, ptr @privkey, align 8, !tbaa !8
  %25 = call i32 @test_ptr(ptr noundef @.str.18, i32 noundef 1314, ptr noundef @.str.21, ptr noundef %24)
  %26 = icmp ne i32 %25, 0
  br i1 %26, label %28, label %27

27:                                               ; preds = %21
  store i32 0, ptr %1, align 4
  store i32 1, ptr %4, align 4
  br label %34

28:                                               ; preds = %21
  %29 = call ptr @CRYPTO_THREAD_lock_new()
  store ptr %29, ptr @global_lock, align 8, !tbaa !13
  %30 = call i32 @test_ptr(ptr noundef @.str.18, i32 noundef 1317, ptr noundef @.str.22, ptr noundef %29)
  %31 = icmp ne i32 %30, 0
  br i1 %31, label %33, label %32

32:                                               ; preds = %28
  store i32 0, ptr %1, align 4
  store i32 1, ptr %4, align 4
  br label %34

33:                                               ; preds = %28
  call void @add_test(ptr noundef @.str.23, ptr noundef @test_multi_default)
  call void @add_test(ptr noundef @.str.24, ptr noundef @test_lock)
  call void @add_test(ptr noundef @.str.25, ptr noundef @torture_rw_low)
  call void @add_test(ptr noundef @.str.26, ptr noundef @torture_rw_high)
  call void @add_test(ptr noundef @.str.27, ptr noundef @torture_rcu_low)
  call void @add_test(ptr noundef @.str.28, ptr noundef @torture_rcu_high)
  call void @add_test(ptr noundef @.str.29, ptr noundef @test_once)
  call void @add_test(ptr noundef @.str.30, ptr noundef @test_thread_local)
  call void @add_test(ptr noundef @.str.31, ptr noundef @test_atomic)
  call void @add_test(ptr noundef @.str.32, ptr noundef @test_multi_load)
  call void @add_test(ptr noundef @.str.33, ptr noundef @test_multi_general_worker_default_provider)
  call void @add_test(ptr noundef @.str.34, ptr noundef @test_multi_general_worker_fips_provider)
  call void @add_test(ptr noundef @.str.35, ptr noundef @test_multi_fetch_worker)
  call void @add_test(ptr noundef @.str.36, ptr noundef @test_multi_shared_pkey)
  call void @add_test(ptr noundef @.str.37, ptr noundef @test_multi_downgrade_shared_pkey)
  call void @add_test(ptr noundef @.str.38, ptr noundef @test_multi_shared_pkey_release)
  call void @add_test(ptr noundef @.str.39, ptr noundef @test_multi_load_unload_provider)
  call void @add_test(ptr noundef @.str.40, ptr noundef @test_obj_add)
  call void @add_test(ptr noundef @.str.41, ptr noundef @test_bio_dgram_pair)
  call void @add_test(ptr noundef @.str.42, ptr noundef @test_pem_read)
  store i32 1, ptr %1, align 4
  store i32 1, ptr %4, align 4
  br label %34

34:                                               ; preds = %33, %32, %27, %20, %14
  call void @llvm.lifetime.end.p0(i64 8, ptr %3) #10
  call void @llvm.lifetime.end.p0(i64 4, ptr %2) #10
  %35 = load i32, ptr %1, align 4
  ret i32 %35
}