; Function Attrs: nounwind uwtable
define dso_local range(i32 0, 2) i32 @setup_tests() local_unnamed_addr #1 {
  br label %1

1:                                                ; preds = %.backedge, %0
  %2 = tail call i32 @opt_next() #11
  switch i32 %2, label %.loopexit [
    i32 0, label %6
    i32 1, label %3
    i32 2, label %4
    i32 500, label %.backedge
    i32 501, label %.backedge
    i32 502, label %.backedge
    i32 503, label %.backedge
    i32 504, label %.backedge
    i32 505, label %.backedge
  ]

.backedge:                                        ; preds = %1, %1, %1, %1, %1, %1, %4, %3
  br label %1, !llvm.loop !4

3:                                                ; preds = %1
  store i1 true, ptr @do_fips, align 4
  br label %.backedge

4:                                                ; preds = %1
  %5 = tail call ptr @opt_arg() #11
  store ptr %5, ptr @config_file, align 8, !tbaa !6
  br label %.backedge

6:                                                ; preds = %1
  %7 = tail call ptr @test_get_argument(i64 noundef 0) #11
  %8 = tail call i32 @test_ptr(ptr noundef nonnull @.str.18, i32 noundef 1310, ptr noundef nonnull @.str.19, ptr noundef %7) #11
  %.not3 = icmp eq i32 %8, 0
  br i1 %.not3, label %.loopexit, label %9

9:                                                ; preds = %6
  %10 = tail call ptr @test_mk_file_path(ptr noundef %7, ptr noundef nonnull @.str.20) #11
  store ptr %10, ptr @privkey, align 8, !tbaa !6
  %11 = tail call i32 @test_ptr(ptr noundef nonnull @.str.18, i32 noundef 1314, ptr noundef nonnull @.str.21, ptr noundef %10) #11
  %.not4 = icmp eq i32 %11, 0
  br i1 %.not4, label %.loopexit, label %12

12:                                               ; preds = %9
  %13 = tail call ptr @CRYPTO_THREAD_lock_new() #11
  store ptr %13, ptr @global_lock, align 8, !tbaa !11
  %14 = tail call i32 @test_ptr(ptr noundef nonnull @.str.18, i32 noundef 1317, ptr noundef nonnull @.str.22, ptr noundef %13) #11
  %.not5 = icmp eq i32 %14, 0
  br i1 %.not5, label %.loopexit, label %15

15:                                               ; preds = %12
  tail call void @add_test(ptr noundef nonnull @.str.23, ptr noundef nonnull @test_multi_default) #11
  tail call void @add_test(ptr noundef nonnull @.str.24, ptr noundef nonnull @test_lock) #11
  tail call void @add_test(ptr noundef nonnull @.str.25, ptr noundef nonnull @torture_rw_low) #11
  tail call void @add_test(ptr noundef nonnull @.str.26, ptr noundef nonnull @torture_rw_high) #11
  tail call void @add_test(ptr noundef nonnull @.str.27, ptr noundef nonnull @torture_rcu_low) #11
  tail call void @add_test(ptr noundef nonnull @.str.28, ptr noundef nonnull @torture_rcu_high) #11
  tail call void @add_test(ptr noundef nonnull @.str.29, ptr noundef nonnull @test_once) #11
  tail call void @add_test(ptr noundef nonnull @.str.30, ptr noundef nonnull @test_thread_local) #11
  tail call void @add_test(ptr noundef nonnull @.str.31, ptr noundef nonnull @test_atomic) #11
  tail call void @add_test(ptr noundef nonnull @.str.32, ptr noundef nonnull @test_multi_load) #11
  tail call void @add_test(ptr noundef nonnull @.str.33, ptr noundef nonnull @test_multi_general_worker_default_provider) #11
  tail call void @add_test(ptr noundef nonnull @.str.34, ptr noundef nonnull @test_multi_general_worker_fips_provider) #11
  tail call void @add_test(ptr noundef nonnull @.str.35, ptr noundef nonnull @test_multi_fetch_worker) #11
  tail call void @add_test(ptr noundef nonnull @.str.36, ptr noundef nonnull @test_multi_shared_pkey) #11
  tail call void @add_test(ptr noundef nonnull @.str.37, ptr noundef nonnull @test_multi_downgrade_shared_pkey) #11
  tail call void @add_test(ptr noundef nonnull @.str.38, ptr noundef nonnull @test_multi_shared_pkey_release) #11
  tail call void @add_test(ptr noundef nonnull @.str.39, ptr noundef nonnull @test_multi_load_unload_provider) #11
  tail call void @add_test(ptr noundef nonnull @.str.40, ptr noundef nonnull @test_obj_add) #11
  tail call void @add_test(ptr noundef nonnull @.str.41, ptr noundef nonnull @test_bio_dgram_pair) #11
  tail call void @add_test(ptr noundef nonnull @.str.42, ptr noundef nonnull @test_pem_read) #11
  br label %.loopexit

.loopexit:                                        ; preds = %1, %12, %9, %6, %15
  %.0 = phi i32 [ 1, %15 ], [ 0, %6 ], [ 0, %9 ], [ 0, %12 ], [ 0, %1 ]
  ret i32 %.0
}